; Function Attrs: nofree norecurse nosync nounwind memory(read, argmem: readwrite, inaccessiblemem: none) uwtable
define void @ff_h264_init_cabac_states(ptr noundef readonly captures(none) %0, ptr noundef captures(none) %1) local_unnamed_addr #0 {
  %3 = getelementptr inbounds nuw i8, ptr %1, i64 64
  %4 = load i32, ptr %3, align 16, !tbaa !4
  %5 = getelementptr inbounds nuw i8, ptr %0, i64 734784
  %6 = load ptr, ptr %5, align 8, !tbaa !17
  %7 = getelementptr inbounds nuw i8, ptr %6, i64 2004
  %8 = load i32, ptr %7, align 4, !tbaa !71
  %.neg = mul i32 %8, -6
  %.neg20 = add i32 %4, 48
  %9 = add i32 %.neg20, %.neg
  %10 = tail call i32 @llvm.smax.i32(i32 %9, i32 0)
  %11 = tail call i32 @llvm.umin.i32(i32 %10, i32 51)
  %12 = getelementptr inbounds nuw i8, ptr %1, i64 56
  %13 = load i32, ptr %12, align 8, !tbaa !75
  %14 = icmp eq i32 %13, 1
  br i1 %14, label %20, label %15

15:                                               ; preds = %2
  %16 = getelementptr inbounds nuw i8, ptr %1, i64 34720
  %17 = load i32, ptr %16, align 16, !tbaa !76
  %18 = sext i32 %17 to i64
  %19 = getelementptr inbounds [3 x [1024 x [2 x i8]]], ptr @cabac_context_init_PB, i64 0, i64 %18
  br label %20

20:                                               ; preds = %2, %15
  %.018 = phi ptr [ %19, %15 ], [ @cabac_context_init_I, %2 ]
  %21 = getelementptr inbounds nuw i8, ptr %1, i64 33696
  br label %22

22:                                               ; preds = %20, %22
  %indvars.iv = phi i64 [ 0, %20 ], [ %indvars.iv.next, %22 ]
  %23 = getelementptr inbounds nuw [2 x i8], ptr %.018, i64 %indvars.iv
  %24 = load i8, ptr %23, align 1, !tbaa !77
  %25 = sext i8 %24 to i32
  %26 = mul nsw i32 %11, %25
  %27 = ashr i32 %26, 4
  %28 = getelementptr inbounds nuw i8, ptr %23, i64 1
  %29 = load i8, ptr %28, align 1, !tbaa !77
  %30 = sext i8 %29 to i32
  %31 = add nsw i32 %27, %30
  %32 = shl nsw i32 %31, 1
  %33 = add nsw i32 %32, -127
  %34 = ashr i32 %33, 31
  %35 = xor i32 %34, %33
  %36 = icmp sgt i32 %35, 124
  %37 = and i32 %35, 1
  %38 = or disjoint i32 %37, 124
  %.0 = select i1 %36, i32 %38, i32 %35
  %39 = trunc i32 %.0 to i8
  %40 = getelementptr inbounds nuw [1024 x i8], ptr %21, i64 0, i64 %indvars.iv
  store i8 %39, ptr %40, align 1, !tbaa !77
  %indvars.iv.next = add nuw nsw i64 %indvars.iv, 1
  %exitcond.not = icmp eq i64 %indvars.iv.next, 1024
  br i1 %exitcond.not, label %41, label %22, !llvm.loop !78

41:                                               ; preds = %22
  ret void
}